target datalayout = "e-m:e-p270:32:32-p271:32:32-p272:64:64-i64:64-i128:128-f80:128-n8:16:32:64-S128"
target triple = "x86_64-pc-linux-gnu"

%struct.rectangle = type { [2 x double], [2 x double] }
%struct.treenode_t = type { double, double, %struct.rectangle, ptr, ptr, %union.anon, i32, i64 }
%union.anon = type { ptr }
%struct.Agobj_s = type { %struct.Agtag_s, ptr }
%struct.Agtag_s = type { i32, i64 }
%struct.Agraphinfo_t = type { %struct.Agrec_s, ptr, ptr, %struct.boxf, [4 x %struct.pointf_s], i8, i8, i8, i8, i32, double, double, i16, ptr, ptr, ptr, ptr, i32, ptr, ptr, ptr, ptr, i16, i16, i32, ptr, ptr, ptr, ptr, ptr, i32, ptr, ptr, %struct.nlist_t, ptr, ptr, i32, i32, i8, i8, i32, i32, i32, ptr, ptr, ptr, ptr, i8, i8, i8, i8, i8 }
%struct.Agrec_s = type { ptr, ptr }
%struct.boxf = type { %struct.pointf_s, %struct.pointf_s }
%struct.pointf_s = type { double, double }
%struct.nlist_t = type { ptr, i64 }
%struct.Agnodeinfo_t = type { %struct.Agrec_s, ptr, ptr, %struct.pointf_s, double, double, %struct.boxf, double, double, double, double, double, ptr, ptr, ptr, i8, i8, i8, i8, i32, i32, i32, ptr, double, i8, i8, ptr, ptr, i8, i64, i8, i8, i8, ptr, ptr, %struct.elist, %struct.elist, %struct.elist, %struct.elist, %struct.elist, ptr, i32, ptr, i32, i32, double, %struct.elist, %struct.elist, %struct.elist, %struct.elist, ptr, i32, i32, i32, [1 x double] }
%struct.elist = type { ptr, i64 }
%struct.rdata = type { ptr }

@stderr = external global ptr, align 8
@.str.2 = private unnamed_addr constant [58 x i8] c"integer overflow when trying to allocate %zu * %zu bytes\0A\00", align 1
@.str.3 = private unnamed_addr constant [49 x i8] c"out of memory when trying to allocate %zu bytes\0A\00", align 1

; Function Attrs: inlinehint nounwind uwtable
define internal ptr @gv_calloc(i64 noundef %0, i64 noundef %1) #5 {
  %3 = alloca i64, align 8
  %4 = alloca i64, align 8
  %5 = alloca ptr, align 8
  store i64 %0, ptr %3, align 8, !tbaa !23
  store i64 %1, ptr %4, align 8, !tbaa !23
  %6 = load i64, ptr %3, align 8, !tbaa !23
  %7 = icmp ugt i64 %6, 0
  br i1 %7, label %8, label %18

8:                                                ; preds = %2
  %9 = load i64, ptr %3, align 8, !tbaa !23
  %10 = udiv i64 -1, %9
  %11 = load i64, ptr %4, align 8, !tbaa !23
  %12 = icmp ult i64 %10, %11
  br i1 %12, label %13, label %18

13:                                               ; preds = %8
  %14 = load ptr, ptr @stderr, align 8, !tbaa !70
  %15 = load i64, ptr %3, align 8, !tbaa !23
  %16 = load i64, ptr %4, align 8, !tbaa !23
  %17 = call i32 (ptr, ptr, ...) @fprintf(ptr noundef %14, ptr noundef @.str.2, i64 noundef %15, i64 noundef %16) #10
  call void @graphviz_exit(i32 noundef 1) #11
  unreachable

18:                                               ; preds = %8, %2
  call void @llvm.lifetime.start.p0(i64 8, ptr %5) #10
  %19 = load i64, ptr %3, align 8, !tbaa !23
  %20 = load i64, ptr %4, align 8, !tbaa !23
  %21 = call noalias ptr @calloc(i64 noundef %19, i64 noundef %20) #12
  store ptr %21, ptr %5, align 8, !tbaa !69
  %22 = load i64, ptr %3, align 8, !tbaa !23
  %23 = icmp ugt i64 %22, 0
  br i1 %23, label %24, label %36

24:                                               ; preds = %18
  %25 = load i64, ptr %4, align 8, !tbaa !23
  %26 = icmp ugt i64 %25, 0
  br i1 %26, label %27, label %36

27:                                               ; preds = %24
  %28 = load ptr, ptr %5, align 8, !tbaa !69
  %29 = icmp eq ptr %28, null
  br i1 %29, label %30, label %36

30:                                               ; preds = %27
  %31 = load ptr, ptr @stderr, align 8, !tbaa !70
  %32 = load i64, ptr %3, align 8, !tbaa !23
  %33 = load i64, ptr %4, align 8, !tbaa !23
  %34 = mul i64 %32, %33
  %35 = call i32 (ptr, ptr, ...) @fprintf(ptr noundef %31, ptr noundef @.str.3, i64 noundef %34) #10
  call void @graphviz_exit(i32 noundef 1) #11
  unreachable

36:                                               ; preds = %27, %24, %18
  %37 = load ptr, ptr %5, align 8, !tbaa !69
  call void @llvm.lifetime.end.p0(i64 8, ptr %5) #10
  ret ptr %37
}

; Function Attrs: nounwind uwtable
define internal double @getArea(ptr noundef %0, ptr noundef %1) #0 {
  %3 = alloca ptr, align 8
  %4 = alloca ptr, align 8
  %5 = alloca double, align 8
  store ptr %0, ptr %3, align 8, !tbaa !69
  store ptr %1, ptr %4, align 8, !tbaa !8
  call void @llvm.lifetime.start.p0(i64 8, ptr %5) #10
  %6 = load ptr, ptr %3, align 8, !tbaa !69
  %7 = load ptr, ptr %4, align 8, !tbaa !8
  %8 = call double @late_double(ptr noundef %6, ptr noundef %7, double noundef 1.000000e+00, double noundef 0.000000e+00)
  store double %8, ptr %5, align 8, !tbaa !18
  %9 = load double, ptr %5, align 8, !tbaa !18
  %10 = fcmp oeq double %9, 0.000000e+00
  br i1 %10, label %11, label %12

11:                                               ; preds = %2
  store double 1.000000e+00, ptr %5, align 8, !tbaa !18
  br label %12

12:                                               ; preds = %11, %2
  %13 = load double, ptr %5, align 8, !tbaa !18
  %14 = fmul double %13, 1.000000e+03
  store double %14, ptr %5, align 8, !tbaa !18
  %15 = load double, ptr %5, align 8, !tbaa !18
  call void @llvm.lifetime.end.p0(i64 8, ptr %5) #10
  ret double %15
}

; Function Attrs: nounwind uwtable
define internal double @fullArea(ptr noundef %0, ptr noundef %1) #0 {
  %3 = alloca ptr, align 8
  %4 = alloca ptr, align 8
  %5 = alloca double, align 8
  %6 = alloca double, align 8
  store ptr %0, ptr %3, align 8, !tbaa !10
  store ptr %1, ptr %4, align 8, !tbaa !8
  call void @llvm.lifetime.start.p0(i64 8, ptr %5) #10
  %7 = load ptr, ptr %3, align 8, !tbaa !10
  %8 = getelementptr inbounds nuw %struct.treenode_t, ptr %7, i32 0, i32 5
  %9 = load ptr, ptr %8, align 8, !tbaa !21
  %10 = load ptr, ptr %4, align 8, !tbaa !8
  %11 = call double @late_double(ptr noundef %9, ptr noundef %10, double noundef 0.000000e+00, double noundef 0.000000e+00)
  store double %11, ptr %5, align 8, !tbaa !18
  call void @llvm.lifetime.start.p0(i64 8, ptr %6) #10
  %12 = load double, ptr %5, align 8, !tbaa !18
  %13 = load ptr, ptr %3, align 8, !tbaa !10
  %14 = getelementptr inbounds nuw %struct.treenode_t, ptr %13, i32 0, i32 1
  %15 = load double, ptr %14, align 8, !tbaa !62
  %16 = call double @sqrt(double noundef %15) #10, !tbaa !19
  %17 = call double @llvm.fmuladd.f64(double 2.000000e+00, double %12, double %16)
  store double %17, ptr %6, align 8, !tbaa !18
  %18 = load double, ptr %6, align 8, !tbaa !18
  %19 = load double, ptr %6, align 8, !tbaa !18
  %20 = fmul double %18, %19
  call void @llvm.lifetime.end.p0(i64 8, ptr %6) #10
  call void @llvm.lifetime.end.p0(i64 8, ptr %5) #10
  ret double %20
}

; Function Attrs: nounwind uwtable
define internal ptr @mkTreeNode(ptr noundef %0, ptr noundef %1) #0 {
  %3 = alloca ptr, align 8
  %4 = alloca ptr, align 8
  %5 = alloca ptr, align 8
  store ptr %0, ptr %3, align 8, !tbaa !50
  store ptr %1, ptr %4, align 8, !tbaa !8
  call void @llvm.lifetime.start.p0(i64 8, ptr %5) #10
  %6 = call ptr @gv_alloc(i64 noundef 88)
  store ptr %6, ptr %5, align 8, !tbaa !10
  %7 = load ptr, ptr %3, align 8, !tbaa !50
  %8 = load ptr, ptr %4, align 8, !tbaa !8
  %9 = call double @getArea(ptr noundef %7, ptr noundef %8)
  %10 = load ptr, ptr %5, align 8, !tbaa !10
  %11 = getelementptr inbounds nuw %struct.treenode_t, ptr %10, i32 0, i32 0
  store double %9, ptr %11, align 8, !tbaa !12
  %12 = load ptr, ptr %5, align 8, !tbaa !10
  %13 = getelementptr inbounds nuw %struct.treenode_t, ptr %12, i32 0, i32 6
  store i32 1, ptr %13, align 8, !tbaa !22
  %14 = load ptr, ptr %3, align 8, !tbaa !50
  %15 = load ptr, ptr %5, align 8, !tbaa !10
  %16 = getelementptr inbounds nuw %struct.treenode_t, ptr %15, i32 0, i32 5
  store ptr %14, ptr %16, align 8, !tbaa !21
  %17 = load ptr, ptr %5, align 8, !tbaa !10
  call void @llvm.lifetime.end.p0(i64 8, ptr %5) #10
  ret ptr %17
}

; Function Attrs: inlinehint nounwind uwtable
define internal ptr @gv_alloc(i64 noundef %0) #5 {
  %2 = alloca i64, align 8
  store i64 %0, ptr %2, align 8, !tbaa !23
  %3 = load i64, ptr %2, align 8, !tbaa !23
  %4 = call ptr @gv_calloc(i64 noundef 1, i64 noundef %3)
  ret ptr %4
}

; Function Attrs: nounwind uwtable
define internal ptr @mkTree(ptr noundef %0, ptr noundef %1, ptr noundef %2, ptr noundef %3) #0 {
  %5 = alloca ptr, align 8
  %6 = alloca ptr, align 8
  %7 = alloca ptr, align 8
  %8 = alloca ptr, align 8
  %9 = alloca ptr, align 8
  %10 = alloca ptr, align 8
  %11 = alloca ptr, align 8
  %12 = alloca ptr, align 8
  %13 = alloca ptr, align 8
  %14 = alloca ptr, align 8
  %15 = alloca i32, align 4
  %16 = alloca double, align 8
  %17 = alloca i64, align 8
  store ptr %0, ptr %5, align 8, !tbaa !3
  store ptr %1, ptr %6, align 8, !tbaa !8
  store ptr %2, ptr %7, align 8, !tbaa !8
  store ptr %3, ptr %8, align 8, !tbaa !8
  call void @llvm.lifetime.start.p0(i64 8, ptr %9) #10
  %18 = call ptr @gv_alloc(i64 noundef 88)
  store ptr %18, ptr %9, align 8, !tbaa !10
  call void @llvm.lifetime.start.p0(i64 8, ptr %10) #10
  call void @llvm.lifetime.start.p0(i64 8, ptr %11) #10
  call void @llvm.lifetime.start.p0(i64 8, ptr %12) #10
  call void @llvm.lifetime.start.p0(i64 8, ptr %13) #10
  store ptr null, ptr %13, align 8, !tbaa !10
  call void @llvm.lifetime.start.p0(i64 8, ptr %14) #10
  store ptr null, ptr %14, align 8, !tbaa !10
  call void @llvm.lifetime.start.p0(i64 4, ptr %15) #10
  call void @llvm.lifetime.start.p0(i64 8, ptr %16) #10
  store double 0.000000e+00, ptr %16, align 8, !tbaa !18
  %19 = load ptr, ptr %9, align 8, !tbaa !10
  %20 = getelementptr inbounds nuw %struct.treenode_t, ptr %19, i32 0, i32 6
  store i32 0, ptr %20, align 8, !tbaa !22
  %21 = load ptr, ptr %5, align 8, !tbaa !3
  %22 = load ptr, ptr %9, align 8, !tbaa !10
  %23 = getelementptr inbounds nuw %struct.treenode_t, ptr %22, i32 0, i32 5
  store ptr %21, ptr %23, align 8, !tbaa !21
  call void @llvm.lifetime.start.p0(i64 8, ptr %17) #10
  store i64 0, ptr %17, align 8, !tbaa !23
  store i32 1, ptr %15, align 4, !tbaa !19
  br label %24

24:                                               ; preds = %67, %4
  %25 = load i32, ptr %15, align 4, !tbaa !19
  %26 = load ptr, ptr %5, align 8, !tbaa !3
  %27 = getelementptr inbounds nuw %struct.Agobj_s, ptr %26, i32 0, i32 1
  %28 = load ptr, ptr %27, align 8, !tbaa !24
  %29 = getelementptr inbounds nuw %struct.Agraphinfo_t, ptr %28, i32 0, i32 24
  %30 = load i32, ptr %29, align 4, !tbaa !28
  %31 = icmp sle i32 %25, %30
  br i1 %31, label %32, label %70

32:                                               ; preds = %24
  %33 = load ptr, ptr %5, align 8, !tbaa !3
  %34 = getelementptr inbounds nuw %struct.Agobj_s, ptr %33, i32 0, i32 1
  %35 = load ptr, ptr %34, align 8, !tbaa !24
  %36 = getelementptr inbounds nuw %struct.Agraphinfo_t, ptr %35, i32 0, i32 25
  %37 = load ptr, ptr %36, align 8, !tbaa !46
  %38 = load i32, ptr %15, align 4, !tbaa !19
  %39 = sext i32 %38 to i64
  %40 = getelementptr inbounds ptr, ptr %37, i64 %39
  %41 = load ptr, ptr %40, align 8, !tbaa !3
  store ptr %41, ptr %10, align 8, !tbaa !3
  %42 = load ptr, ptr %10, align 8, !tbaa !3
  %43 = load ptr, ptr %6, align 8, !tbaa !8
  %44 = load ptr, ptr %7, align 8, !tbaa !8
  %45 = load ptr, ptr %8, align 8, !tbaa !8
  %46 = call ptr @mkTree(ptr noundef %42, ptr noundef %43, ptr noundef %44, ptr noundef %45)
  store ptr %46, ptr %12, align 8, !tbaa !10
  %47 = load i64, ptr %17, align 8, !tbaa !23
  %48 = add i64 %47, 1
  store i64 %48, ptr %17, align 8, !tbaa !23
  %49 = load ptr, ptr %12, align 8, !tbaa !10
  %50 = getelementptr inbounds nuw %struct.treenode_t, ptr %49, i32 0, i32 0
  %51 = load double, ptr %50, align 8, !tbaa !12
  %52 = load double, ptr %16, align 8, !tbaa !18
  %53 = fadd double %52, %51
  store double %53, ptr %16, align 8, !tbaa !18
  %54 = load ptr, ptr %13, align 8, !tbaa !10
  %55 = icmp ne ptr %54, null
  br i1 %55, label %58, label %56

56:                                               ; preds = %32
  %57 = load ptr, ptr %12, align 8, !tbaa !10
  store ptr %57, ptr %13, align 8, !tbaa !10
  br label %58

58:                                               ; preds = %56, %32
  %59 = load ptr, ptr %14, align 8, !tbaa !10
  %60 = icmp ne ptr %59, null
  br i1 %60, label %61, label %65

61:                                               ; preds = %58
  %62 = load ptr, ptr %12, align 8, !tbaa !10
  %63 = load ptr, ptr %14, align 8, !tbaa !10
  %64 = getelementptr inbounds nuw %struct.treenode_t, ptr %63, i32 0, i32 4
  store ptr %62, ptr %64, align 8, !tbaa !47
  br label %65

65:                                               ; preds = %61, %58
  %66 = load ptr, ptr %12, align 8, !tbaa !10
  store ptr %66, ptr %14, align 8, !tbaa !10
  br label %67

67:                                               ; preds = %65
  %68 = load i32, ptr %15, align 4, !tbaa !19
  %69 = add nsw i32 %68, 1
  store i32 %69, ptr %15, align 4, !tbaa !19
  br label %24, !llvm.loop !48

70:                                               ; preds = %24
  %71 = load ptr, ptr %5, align 8, !tbaa !3
  %72 = call ptr @agfstnode(ptr noundef %71)
  store ptr %72, ptr %11, align 8, !tbaa !50
  br label %73

73:                                               ; preds = %117, %70
  %74 = load ptr, ptr %11, align 8, !tbaa !50
  %75 = icmp ne ptr %74, null
  br i1 %75, label %76, label %121

76:                                               ; preds = %73
  %77 = load ptr, ptr %11, align 8, !tbaa !50
  %78 = getelementptr inbounds nuw %struct.Agobj_s, ptr %77, i32 0, i32 1
  %79 = load ptr, ptr %78, align 8, !tbaa !24
  %80 = getelementptr inbounds nuw %struct.Agnodeinfo_t, ptr %79, i32 0, i32 14
  %81 = load ptr, ptr %80, align 8, !tbaa !51
  %82 = getelementptr inbounds nuw %struct.rdata, ptr %81, i32 0, i32 0
  %83 = load ptr, ptr %82, align 8, !tbaa !58
  %84 = icmp ne ptr %83, null
  br i1 %84, label %85, label %86

85:                                               ; preds = %76
  br label %117

86:                                               ; preds = %76
  %87 = load ptr, ptr %11, align 8, !tbaa !50
  %88 = load ptr, ptr %7, align 8, !tbaa !8
  %89 = call ptr @mkTreeNode(ptr noundef %87, ptr noundef %88)
  store ptr %89, ptr %12, align 8, !tbaa !10
  %90 = load i64, ptr %17, align 8, !tbaa !23
  %91 = add i64 %90, 1
  store i64 %91, ptr %17, align 8, !tbaa !23
  %92 = load ptr, ptr %12, align 8, !tbaa !10
  %93 = getelementptr inbounds nuw %struct.treenode_t, ptr %92, i32 0, i32 0
  %94 = load double, ptr %93, align 8, !tbaa !12
  %95 = load double, ptr %16, align 8, !tbaa !18
  %96 = fadd double %95, %94
  store double %96, ptr %16, align 8, !tbaa !18
  %97 = load ptr, ptr %13, align 8, !tbaa !10
  %98 = icmp ne ptr %97, null
  br i1 %98, label %101, label %99

99:                                               ; preds = %86
  %100 = load ptr, ptr %12, align 8, !tbaa !10
  store ptr %100, ptr %13, align 8, !tbaa !10
  br label %101

101:                                              ; preds = %99, %86
  %102 = load ptr, ptr %14, align 8, !tbaa !10
  %103 = icmp ne ptr %102, null
  br i1 %103, label %104, label %108

104:                                              ; preds = %101
  %105 = load ptr, ptr %12, align 8, !tbaa !10
  %106 = load ptr, ptr %14, align 8, !tbaa !10
  %107 = getelementptr inbounds nuw %struct.treenode_t, ptr %106, i32 0, i32 4
  store ptr %105, ptr %107, align 8, !tbaa !47
  br label %108

108:                                              ; preds = %104, %101
  %109 = load ptr, ptr %12, align 8, !tbaa !10
  store ptr %109, ptr %14, align 8, !tbaa !10
  %110 = load ptr, ptr %5, align 8, !tbaa !3
  %111 = load ptr, ptr %11, align 8, !tbaa !50
  %112 = getelementptr inbounds nuw %struct.Agobj_s, ptr %111, i32 0, i32 1
  %113 = load ptr, ptr %112, align 8, !tbaa !24
  %114 = getelementptr inbounds nuw %struct.Agnodeinfo_t, ptr %113, i32 0, i32 14
  %115 = load ptr, ptr %114, align 8, !tbaa !51
  %116 = getelementptr inbounds nuw %struct.rdata, ptr %115, i32 0, i32 0
  store ptr %110, ptr %116, align 8, !tbaa !58
  br label %117

117:                                              ; preds = %108, %85
  %118 = load ptr, ptr %5, align 8, !tbaa !3
  %119 = load ptr, ptr %11, align 8, !tbaa !50
  %120 = call ptr @agnxtnode(ptr noundef %118, ptr noundef %119)
  store ptr %120, ptr %11, align 8, !tbaa !50
  br label %73, !llvm.loop !60

121:                                              ; preds = %73
  %122 = load i64, ptr %17, align 8, !tbaa !23
  %123 = load ptr, ptr %9, align 8, !tbaa !10
  %124 = getelementptr inbounds nuw %struct.treenode_t, ptr %123, i32 0, i32 7
  store i64 %122, ptr %124, align 8, !tbaa !61
  %125 = load i64, ptr %17, align 8, !tbaa !23
  %126 = icmp ne i64 %125, 0
  br i1 %126, label %127, label %136

127:                                              ; preds = %121
  %128 = load double, ptr %16, align 8, !tbaa !18
  %129 = load ptr, ptr %9, align 8, !tbaa !10
  %130 = getelementptr inbounds nuw %struct.treenode_t, ptr %129, i32 0, i32 1
  store double %128, ptr %130, align 8, !tbaa !62
  %131 = load ptr, ptr %9, align 8, !tbaa !10
  %132 = load ptr, ptr %8, align 8, !tbaa !8
  %133 = call double @fullArea(ptr noundef %131, ptr noundef %132)
  %134 = load ptr, ptr %9, align 8, !tbaa !10
  %135 = getelementptr inbounds nuw %struct.treenode_t, ptr %134, i32 0, i32 0
  store double %133, ptr %135, align 8, !tbaa !12
  br label %142

136:                                              ; preds = %121
  %137 = load ptr, ptr %5, align 8, !tbaa !3
  %138 = load ptr, ptr %6, align 8, !tbaa !8
  %139 = call double @getArea(ptr noundef %137, ptr noundef %138)
  %140 = load ptr, ptr %9, align 8, !tbaa !10
  %141 = getelementptr inbounds nuw %struct.treenode_t, ptr %140, i32 0, i32 0
  store double %139, ptr %141, align 8, !tbaa !12
  br label %142

142:                                              ; preds = %136, %127
  %143 = load ptr, ptr %13, align 8, !tbaa !10
  %144 = load ptr, ptr %9, align 8, !tbaa !10
  %145 = getelementptr inbounds nuw %struct.treenode_t, ptr %144, i32 0, i32 3
  store ptr %143, ptr %145, align 8, !tbaa !63
  %146 = load ptr, ptr %9, align 8, !tbaa !10
  call void @llvm.lifetime.end.p0(i64 8, ptr %17) #10
  call void @llvm.lifetime.end.p0(i64 8, ptr %16) #10
  call void @llvm.lifetime.end.p0(i64 4, ptr %15) #10
  call void @llvm.lifetime.end.p0(i64 8, ptr %14) #10
  call void @llvm.lifetime.end.p0(i64 8, ptr %13) #10
  call void @llvm.lifetime.end.p0(i64 8, ptr %12) #10
  call void @llvm.lifetime.end.p0(i64 8, ptr %11) #10
  call void @llvm.lifetime.end.p0(i64 8, ptr %10) #10
  call void @llvm.lifetime.end.p0(i64 8, ptr %9) #10
  ret ptr %146
}