; Function Attrs: nounwind uwtable
define internal fastcc noalias noundef ptr @mkTree(ptr noundef %0, ptr noundef %1, ptr noundef %2, ptr noundef %3) unnamed_addr #0 {
  %5 = tail call noalias dereferenceable_or_null(88) ptr @calloc(i64 noundef 1, i64 noundef 88) #15
  %6 = icmp eq ptr %5, null
  br i1 %6, label %7, label %gv_alloc.exit

7:                                                ; preds = %4
  %8 = load ptr, ptr @stderr, align 8, !tbaa !15
  %9 = tail call i32 (ptr, ptr, ...) @fprintf(ptr noundef %8, ptr noundef nonnull @.str.3, i64 noundef 88) #16
  tail call fastcc void @graphviz_exit() #17
  unreachable

gv_alloc.exit:                                    ; preds = %4
  %10 = getelementptr inbounds nuw i8, ptr %5, i64 64
  store ptr %0, ptr %10, align 8, !tbaa !14
  %11 = getelementptr inbounds nuw i8, ptr %0, i64 16
  %12 = load ptr, ptr %11, align 8, !tbaa !17
  %13 = getelementptr inbounds nuw i8, ptr %12, i64 236
  %14 = load i32, ptr %13, align 4, !tbaa !21
  %.not74 = icmp slt i32 %14, 1
  br i1 %.not74, label %._crit_edge, label %.lr.ph

.lr.ph:                                           ; preds = %gv_alloc.exit, %26
  %indvars.iv = phi i64 [ %indvars.iv.next, %26 ], [ 1, %gv_alloc.exit ]
  %15 = phi ptr [ %27, %26 ], [ %12, %gv_alloc.exit ]
  %.079 = phi i64 [ %21, %26 ], [ 0, %gv_alloc.exit ]
  %.05278 = phi double [ %23, %26 ], [ 0.000000e+00, %gv_alloc.exit ]
  %.05676 = phi ptr [ %20, %26 ], [ null, %gv_alloc.exit ]
  %.05975 = phi ptr [ %spec.select, %26 ], [ null, %gv_alloc.exit ]
  %16 = getelementptr inbounds nuw i8, ptr %15, i64 240
  %17 = load ptr, ptr %16, align 8, !tbaa !40
  %18 = getelementptr inbounds nuw ptr, ptr %17, i64 %indvars.iv
  %19 = load ptr, ptr %18, align 8, !tbaa !41
  %20 = tail call fastcc ptr @mkTree(ptr noundef %19, ptr noundef %1, ptr noundef %2, ptr noundef %3)
  %21 = add nuw nsw i64 %.079, 1
  %22 = load double, ptr %20, align 8, !tbaa !3
  %23 = fadd double %.05278, %22
  %.not68 = icmp eq ptr %.05975, null
  %spec.select = select i1 %.not68, ptr %20, ptr %.05975
  %.not69 = icmp eq ptr %.05676, null
  br i1 %.not69, label %26, label %24

24:                                               ; preds = %.lr.ph
  %25 = getelementptr inbounds nuw i8, ptr %.05676, i64 56
  store ptr %20, ptr %25, align 8, !tbaa !42
  br label %26

26:                                               ; preds = %24, %.lr.ph
  %indvars.iv.next = add nuw nsw i64 %indvars.iv, 1
  %27 = load ptr, ptr %11, align 8, !tbaa !17
  %28 = getelementptr inbounds nuw i8, ptr %27, i64 236
  %29 = load i32, ptr %28, align 4, !tbaa !21
  %30 = sext i32 %29 to i64
  %.not.not = icmp slt i64 %indvars.iv, %30
  br i1 %.not.not, label %.lr.ph, label %._crit_edge, !llvm.loop !43

._crit_edge:                                      ; preds = %26, %gv_alloc.exit
  %.059.lcssa = phi ptr [ null, %gv_alloc.exit ], [ %spec.select, %26 ]
  %.056.lcssa = phi ptr [ null, %gv_alloc.exit ], [ %20, %26 ]
  %.052.lcssa = phi double [ 0.000000e+00, %gv_alloc.exit ], [ %23, %26 ]
  %.0.lcssa = phi i64 [ 0, %gv_alloc.exit ], [ %21, %26 ]
  %31 = tail call ptr @agfstnode(ptr noundef nonnull %0) #14
  %.not6383 = icmp eq ptr %31, null
  br i1 %.not6383, label %._crit_edge91, label %.lr.ph90

.lr.ph90:                                         ; preds = %._crit_edge, %57
  %.188 = phi i64 [ %.2, %57 ], [ %.0.lcssa, %._crit_edge ]
  %.15387 = phi double [ %.254, %57 ], [ %.052.lcssa, %._crit_edge ]
  %.15786 = phi ptr [ %.258, %57 ], [ %.056.lcssa, %._crit_edge ]
  %.26185 = phi ptr [ %.3, %57 ], [ %.059.lcssa, %._crit_edge ]
  %.06284 = phi ptr [ %58, %57 ], [ %31, %._crit_edge ]
  %32 = getelementptr inbounds nuw i8, ptr %.06284, i64 16
  %33 = load ptr, ptr %32, align 8, !tbaa !17
  %34 = getelementptr inbounds nuw i8, ptr %33, i64 152
  %35 = load ptr, ptr %34, align 8, !tbaa !45
  %36 = load ptr, ptr %35, align 8, !tbaa !52
  %.not65 = icmp eq ptr %36, null
  br i1 %.not65, label %37, label %57

37:                                               ; preds = %.lr.ph90
  %38 = tail call noalias dereferenceable_or_null(88) ptr @calloc(i64 noundef 1, i64 noundef 88) #15
  %39 = icmp eq ptr %38, null
  br i1 %39, label %40, label %mkTreeNode.exit

40:                                               ; preds = %37
  %41 = load ptr, ptr @stderr, align 8, !tbaa !15
  %42 = tail call i32 (ptr, ptr, ...) @fprintf(ptr noundef %41, ptr noundef nonnull @.str.3, i64 noundef 88) #16
  tail call fastcc void @graphviz_exit() #17
  unreachable

mkTreeNode.exit:                                  ; preds = %37
  %43 = tail call double @late_double(ptr noundef nonnull %.06284, ptr noundef %2, double noundef 1.000000e+00, double noundef 0.000000e+00) #14
  %44 = fcmp oeq double %43, 0.000000e+00
  %45 = fmul double %43, 1.000000e+03
  %46 = select i1 %44, double 1.000000e+03, double %45
  store double %46, ptr %38, align 8, !tbaa !3
  %47 = getelementptr inbounds nuw i8, ptr %38, i64 72
  store i32 1, ptr %47, align 8, !tbaa !54
  %48 = getelementptr inbounds nuw i8, ptr %38, i64 64
  store ptr %.06284, ptr %48, align 8, !tbaa !14
  %49 = add i64 %.188, 1
  %50 = fadd double %.15387, %46
  %.not66 = icmp eq ptr %.26185, null
  %spec.select70 = select i1 %.not66, ptr %38, ptr %.26185
  %.not67 = icmp eq ptr %.15786, null
  br i1 %.not67, label %53, label %51

51:                                               ; preds = %mkTreeNode.exit
  %52 = getelementptr inbounds nuw i8, ptr %.15786, i64 56
  store ptr %38, ptr %52, align 8, !tbaa !42
  br label %53

53:                                               ; preds = %51, %mkTreeNode.exit
  %54 = load ptr, ptr %32, align 8, !tbaa !17
  %55 = getelementptr inbounds nuw i8, ptr %54, i64 152
  %56 = load ptr, ptr %55, align 8, !tbaa !45
  store ptr %0, ptr %56, align 8, !tbaa !52
  br label %57

57:                                               ; preds = %.lr.ph90, %53
  %.3 = phi ptr [ %.26185, %.lr.ph90 ], [ %spec.select70, %53 ]
  %.258 = phi ptr [ %.15786, %.lr.ph90 ], [ %38, %53 ]
  %.254 = phi double [ %.15387, %.lr.ph90 ], [ %50, %53 ]
  %.2 = phi i64 [ %.188, %.lr.ph90 ], [ %49, %53 ]
  %58 = tail call ptr @agnxtnode(ptr noundef nonnull %0, ptr noundef nonnull %.06284) #14
  %.not63 = icmp eq ptr %58, null
  br i1 %.not63, label %._crit_edge91, label %.lr.ph90, !llvm.loop !55

._crit_edge91:                                    ; preds = %57, %._crit_edge
  %.261.lcssa = phi ptr [ %.059.lcssa, %._crit_edge ], [ %.3, %57 ]
  %.153.lcssa = phi double [ %.052.lcssa, %._crit_edge ], [ %.254, %57 ]
  %.1.lcssa = phi i64 [ %.0.lcssa, %._crit_edge ], [ %.2, %57 ]
  %59 = getelementptr inbounds nuw i8, ptr %5, i64 80
  store i64 %.1.lcssa, ptr %59, align 8, !tbaa !56
  %.not64 = icmp eq i64 %.1.lcssa, 0
  br i1 %.not64, label %67, label %60

60:                                               ; preds = %._crit_edge91
  %61 = getelementptr inbounds nuw i8, ptr %5, i64 8
  store double %.153.lcssa, ptr %61, align 8, !tbaa !57
  %62 = load ptr, ptr %10, align 8, !tbaa !14
  %63 = tail call double @late_double(ptr noundef %62, ptr noundef %3, double noundef 0.000000e+00, double noundef 0.000000e+00) #14
  %64 = tail call double @sqrt(double noundef %.153.lcssa) #14, !tbaa !13
  %65 = tail call double @llvm.fmuladd.f64(double %63, double 2.000000e+00, double %64)
  %66 = fmul double %65, %65
  br label %72

67:                                               ; preds = %._crit_edge91
  %68 = tail call double @late_double(ptr noundef nonnull %0, ptr noundef %1, double noundef 1.000000e+00, double noundef 0.000000e+00) #14
  %69 = fcmp oeq double %68, 0.000000e+00
  %70 = fmul double %68, 1.000000e+03
  %71 = select i1 %69, double 1.000000e+03, double %70
  br label %72

72:                                               ; preds = %67, %60
  %storemerge = phi double [ %71, %67 ], [ %66, %60 ]
  store double %storemerge, ptr %5, align 8, !tbaa !3
  %73 = getelementptr inbounds nuw i8, ptr %5, i64 48
  store ptr %.261.lcssa, ptr %73, align 8, !tbaa !58
  ret ptr %5
}